; Function Attrs: mustprogress nofree norecurse nounwind willreturn uwtable
define noundef ptr @_ZNK4base25PersistentMemoryAllocator12GetBlockDataEjjj(ptr noundef nonnull readonly align 8 captures(none) dereferenceable(48) %0, i32 noundef %1, i32 noundef %2, i32 noundef %3) local_unnamed_addr #1 align 2 {
  %5 = and i32 %1, 7
  %.not.i = icmp eq i32 %5, 0
  br i1 %.not.i, label %6, label %_ZNK4base25PersistentMemoryAllocator8GetBlockEjjjbb.exit

6:                                                ; preds = %4
  %7 = zext i32 %1 to i64
  %8 = icmp ult i32 %1, 56
  br i1 %8, label %_ZNK4base25PersistentMemoryAllocator8GetBlockEjjjbb.exit, label %9

9:                                                ; preds = %6
  %10 = add i32 %3, 16
  %11 = add i32 %10, %1
  %12 = getelementptr inbounds nuw i8, ptr %0, i64 16
  %13 = load i32, ptr %12, align 8, !tbaa !13
  %14 = icmp ugt i32 %11, %13
  br i1 %14, label %_ZNK4base25PersistentMemoryAllocator8GetBlockEjjjbb.exit, label %15

15:                                               ; preds = %9
  %.phi.trans.insert.i = getelementptr inbounds nuw i8, ptr %0, i64 8
  %.pre.i = load ptr, ptr %.phi.trans.insert.i, align 8, !tbaa !20
  %16 = getelementptr inbounds nuw i8, ptr %.pre.i, i64 32
  %17 = load atomic volatile i32, ptr %16 monotonic, align 4
  %.sroa.speculated.i = tail call i32 @llvm.umin.i32(i32 %13, i32 %17)
  %18 = icmp ult i32 %17, %11
  br i1 %18, label %_ZNK4base25PersistentMemoryAllocator8GetBlockEjjjbb.exit, label %19

19:                                               ; preds = %15
  %20 = getelementptr inbounds nuw i8, ptr %.pre.i, i64 %7
  %21 = load volatile i32, ptr %20, align 4, !tbaa !21
  %22 = icmp ult i32 %21, %10
  br i1 %22, label %_ZNK4base25PersistentMemoryAllocator8GetBlockEjjjbb.exit, label %23

23:                                               ; preds = %19
  %24 = load volatile i32, ptr %20, align 4, !tbaa !21
  %25 = add i32 %24, %1
  %26 = icmp ugt i32 %25, %.sroa.speculated.i
  br i1 %26, label %_ZNK4base25PersistentMemoryAllocator8GetBlockEjjjbb.exit, label %27

27:                                               ; preds = %23
  %28 = getelementptr inbounds nuw i8, ptr %20, i64 4
  %29 = load volatile i32, ptr %28, align 4, !tbaa !23
  %.not31.i = icmp eq i32 %29, -931556759
  br i1 %.not31.i, label %30, label %_ZNK4base25PersistentMemoryAllocator8GetBlockEjjjbb.exit

30:                                               ; preds = %27
  %.not32.i = icmp eq i32 %2, 0
  br i1 %.not32.i, label %._crit_edge.i, label %31

31:                                               ; preds = %30
  %32 = getelementptr inbounds nuw i8, ptr %20, i64 8
  %33 = load atomic volatile i32, ptr %32 monotonic, align 4
  %.not33.i = icmp eq i32 %33, %2
  br i1 %.not33.i, label %._crit_edge.i, label %_ZNK4base25PersistentMemoryAllocator8GetBlockEjjjbb.exit

._crit_edge.i:                                    ; preds = %31, %30
  br label %_ZNK4base25PersistentMemoryAllocator8GetBlockEjjjbb.exit

_ZNK4base25PersistentMemoryAllocator8GetBlockEjjjbb.exit: ; preds = %4, %6, %9, %15, %19, %23, %27, %31, %._crit_edge.i
  %.0.i = phi ptr [ %20, %._crit_edge.i ], [ null, %4 ], [ null, %6 ], [ null, %9 ], [ null, %15 ], [ null, %19 ], [ null, %23 ], [ null, %27 ], [ null, %31 ]
  %.not = icmp eq ptr %.0.i, null
  %34 = getelementptr inbounds nuw i8, ptr %.0.i, i64 16
  %.0 = select i1 %.not, ptr null, ptr %34
  ret ptr %.0
}